target datalayout = "e-m:e-p270:32:32-p271:32:32-p272:64:64-i64:64-i128:128-f80:128-n8:16:32:64-S128"
target triple = "x86_64-pc-linux-gnu"

@.str.3 = private unnamed_addr constant [3 x i8] c"$<\00", align 1

; Function Attrs: mustprogress nounwind uwtable
define dso_local noundef i64 @_ZN21cmGeneratorExpression4FindERKNSt7__cxx1112basic_stringIcSt11char_traitsIcESaIcEEE(ptr noundef nonnull align 8 dereferenceable(32) %0) #4 align 2 {
  %2 = alloca i64, align 8
  %3 = alloca ptr, align 8
  %4 = alloca i64, align 8
  store ptr %0, ptr %3, align 8
  %5 = load ptr, ptr %3, align 8
  %6 = call noundef i64 @_ZNKSt7__cxx1112basic_stringIcSt11char_traitsIcESaIcEE4findEPKcm(ptr noundef nonnull align 8 dereferenceable(32) %5, ptr noundef @.str.3, i64 noundef 0) #3
  store i64 %6, ptr %4, align 8
  %7 = load i64, ptr %4, align 8
  %8 = icmp ne i64 %7, -1
  br i1 %8, label %9, label %16

9:                                                ; preds = %1
  %10 = load ptr, ptr %3, align 8
  %11 = load i64, ptr %4, align 8
  %12 = call noundef i64 @_ZNKSt7__cxx1112basic_stringIcSt11char_traitsIcESaIcEE4findEcm(ptr noundef nonnull align 8 dereferenceable(32) %10, i8 noundef signext 62, i64 noundef %11) #3
  %13 = icmp ne i64 %12, -1
  br i1 %13, label %14, label %16

14:                                               ; preds = %9
  %15 = load i64, ptr %4, align 8
  store i64 %15, ptr %2, align 8
  br label %17

16:                                               ; preds = %9, %1
  store i64 -1, ptr %2, align 8
  br label %17

17:                                               ; preds = %16, %14
  %18 = load i64, ptr %2, align 8
  ret i64 %18
}