; Function Attrs: mustprogress nounwind uwtable
define dso_local noundef i64 @_ZN21cmGeneratorExpression4FindERKNSt7__cxx1112basic_stringIcSt11char_traitsIcESaIcEEE(ptr noundef nonnull align 8 dereferenceable(32) %0) local_unnamed_addr #4 align 2 {
  %2 = tail call noundef i64 @_ZNKSt7__cxx1112basic_stringIcSt11char_traitsIcESaIcEE4findEPKcm(ptr noundef nonnull align 8 dereferenceable(32) %0, ptr noundef nonnull @.str.3, i64 noundef 0) #20
  %.not = icmp eq i64 %2, -1
  br i1 %.not, label %5, label %3

3:                                                ; preds = %1
  %4 = tail call noundef i64 @_ZNKSt7__cxx1112basic_stringIcSt11char_traitsIcESaIcEE4findEcm(ptr noundef nonnull align 8 dereferenceable(32) %0, i8 noundef signext 62, i64 noundef %2) #20
  %.not6 = icmp eq i64 %4, -1
  br i1 %.not6, label %5, label %6

5:                                                ; preds = %3, %1
  br label %6

6:                                                ; preds = %3, %5
  %.0 = phi i64 [ -1, %5 ], [ %2, %3 ]
  ret i64 %.0
}